; Function Attrs: mustprogress nofree norecurse nosync nounwind willreturn memory(argmem: readwrite) uwtable
define i64 @Extra_Truth6MinimumRoundOne_noEBFC(i64 noundef %0, i32 noundef %1, ptr noundef captures(none) %2, ptr noundef captures(none) %3) local_unnamed_addr #3 {
  %5 = sext i32 %1 to i64
  %6 = getelementptr inbounds [5 x [3 x i64]], ptr @Extra_Truth6SwapAdjacent.PMasks, i64 0, i64 %5
  %7 = load i64, ptr %6, align 8, !tbaa !10
  %8 = and i64 %7, %0
  %9 = getelementptr inbounds nuw i8, ptr %6, i64 8
  %10 = load i64, ptr %9, align 8, !tbaa !10
  %11 = and i64 %10, %0
  %12 = shl nuw i32 1, %1
  %13 = zext i32 %12 to i64
  %14 = shl i64 %11, %13
  %15 = or i64 %14, %8
  %16 = getelementptr inbounds nuw i8, ptr %6, i64 16
  %17 = load i64, ptr %16, align 8, !tbaa !10
  %18 = and i64 %17, %0
  %19 = lshr i64 %18, %13
  %20 = or i64 %15, %19
  %21 = icmp ult i64 %0, %20
  br i1 %21, label %35, label %adjustInfoAfterSwap.exit

adjustInfoAfterSwap.exit:                         ; preds = %4
  %22 = load i32, ptr %3, align 4, !tbaa !8
  %23 = getelementptr inbounds i8, ptr %2, i64 %5
  %24 = load i8, ptr %23, align 1, !tbaa !3
  %25 = add nsw i32 %1, 1
  %26 = sext i32 %25 to i64
  %27 = getelementptr inbounds i8, ptr %2, i64 %26
  %28 = load i8, ptr %27, align 1, !tbaa !3
  store i8 %28, ptr %23, align 1, !tbaa !3
  store i8 %24, ptr %27, align 1, !tbaa !3
  %29 = lshr i32 %22, %1
  %30 = lshr i32 %22, %25
  %31 = xor i32 %29, %30
  %32 = and i32 %31, 1
  %.not.i = icmp eq i32 %32, 0
  %33 = shl i32 3, %1
  %34 = select i1 %.not.i, i32 0, i32 %33
  %.0.i = xor i32 %34, %22
  store i32 %.0.i, ptr %3, align 4, !tbaa !8
  br label %35

35:                                               ; preds = %4, %adjustInfoAfterSwap.exit
  %.0 = phi i64 [ %20, %adjustInfoAfterSwap.exit ], [ %0, %4 ]
  ret i64 %.0
}